
practica10.elf:     file format elf32-avr

Sections:
Idx Name          Size      VMA       LMA       File off  Algn
  0 .text         00000482  00000000  00000000  00000054  2**1
                  CONTENTS, ALLOC, LOAD, READONLY, CODE
  1 .data         00000000  00800060  00800060  000004d6  2**0
                  CONTENTS, ALLOC, LOAD, DATA
  2 .comment      00000030  00000000  00000000  000004d6  2**0
                  CONTENTS, READONLY
  3 .note.gnu.avr.deviceinfo 0000003c  00000000  00000000  00000508  2**2
                  CONTENTS, READONLY
  4 .debug_aranges 000000b8  00000000  00000000  00000544  2**0
                  CONTENTS, READONLY, DEBUGGING
  5 .debug_info   00001186  00000000  00000000  000005fc  2**0
                  CONTENTS, READONLY, DEBUGGING
  6 .debug_abbrev 000008a3  00000000  00000000  00001782  2**0
                  CONTENTS, READONLY, DEBUGGING
  7 .debug_line   00000850  00000000  00000000  00002025  2**0
                  CONTENTS, READONLY, DEBUGGING
  8 .debug_frame  00000194  00000000  00000000  00002878  2**2
                  CONTENTS, READONLY, DEBUGGING
  9 .debug_str    0000047d  00000000  00000000  00002a0c  2**0
                  CONTENTS, READONLY, DEBUGGING
 10 .debug_loc    0000079b  00000000  00000000  00002e89  2**0
                  CONTENTS, READONLY, DEBUGGING
 11 .debug_ranges 00000098  00000000  00000000  00003624  2**0
                  CONTENTS, READONLY, DEBUGGING

Disassembly of section .text:

00000000 <__vectors>:
   0:	0c 94 2a 00 	jmp	0x54	; 0x54 <__ctors_end>
   4:	0c 94 34 00 	jmp	0x68	; 0x68 <__bad_interrupt>
   8:	0c 94 34 00 	jmp	0x68	; 0x68 <__bad_interrupt>
   c:	0c 94 34 00 	jmp	0x68	; 0x68 <__bad_interrupt>
  10:	0c 94 34 00 	jmp	0x68	; 0x68 <__bad_interrupt>
  14:	0c 94 34 00 	jmp	0x68	; 0x68 <__bad_interrupt>
  18:	0c 94 34 00 	jmp	0x68	; 0x68 <__bad_interrupt>
  1c:	0c 94 34 00 	jmp	0x68	; 0x68 <__bad_interrupt>
  20:	0c 94 34 00 	jmp	0x68	; 0x68 <__bad_interrupt>
  24:	0c 94 34 00 	jmp	0x68	; 0x68 <__bad_interrupt>
  28:	0c 94 34 00 	jmp	0x68	; 0x68 <__bad_interrupt>
  2c:	0c 94 34 00 	jmp	0x68	; 0x68 <__bad_interrupt>
  30:	0c 94 34 00 	jmp	0x68	; 0x68 <__bad_interrupt>
  34:	0c 94 34 00 	jmp	0x68	; 0x68 <__bad_interrupt>
  38:	0c 94 34 00 	jmp	0x68	; 0x68 <__bad_interrupt>
  3c:	0c 94 34 00 	jmp	0x68	; 0x68 <__bad_interrupt>
  40:	0c 94 34 00 	jmp	0x68	; 0x68 <__bad_interrupt>
  44:	0c 94 34 00 	jmp	0x68	; 0x68 <__bad_interrupt>
  48:	0c 94 34 00 	jmp	0x68	; 0x68 <__bad_interrupt>
  4c:	0c 94 34 00 	jmp	0x68	; 0x68 <__bad_interrupt>
  50:	0c 94 34 00 	jmp	0x68	; 0x68 <__bad_interrupt>

00000054 <__ctors_end>:
  54:	11 24       	eor	r1, r1
  56:	1f be       	out	0x3f, r1	; 63
  58:	cf e5       	ldi	r28, 0x5F	; 95
  5a:	d4 e0       	ldi	r29, 0x04	; 4
  5c:	de bf       	out	0x3e, r29	; 62
  5e:	cd bf       	out	0x3d, r28	; 61
  60:	0e 94 b1 01 	call	0x362	; 0x362 <main>
  64:	0c 94 3f 02 	jmp	0x47e	; 0x47e <_exit>

00000068 <__bad_interrupt>:
  68:	0c 94 00 00 	jmp	0	; 0x0 <__vectors>

0000006c <toggle_e>:

    while ( (c = pgm_read_byte(progmem_s++)) ) {
        lcd_putc(c);
    }

}/* lcd_puts_p */
  6c:	85 b3       	in	r24, 0x15	; 21
  6e:	80 64       	ori	r24, 0x40	; 64
  70:	85 bb       	out	0x15, r24	; 21
  72:	00 c0       	rjmp	.+0      	; 0x74 <toggle_e+0x8>
  74:	85 b3       	in	r24, 0x15	; 21
  76:	8f 7b       	andi	r24, 0xBF	; 191
  78:	85 bb       	out	0x15, r24	; 21
  7a:	08 95       	ret

0000007c <lcd_write>:
  7c:	cf 93       	push	r28
  7e:	df 93       	push	r29
  80:	d8 2f       	mov	r29, r24
  82:	66 23       	and	r22, r22
  84:	21 f0       	breq	.+8      	; 0x8e <lcd_write+0x12>
  86:	85 b3       	in	r24, 0x15	; 21
  88:	80 61       	ori	r24, 0x10	; 16
  8a:	85 bb       	out	0x15, r24	; 21
  8c:	03 c0       	rjmp	.+6      	; 0x94 <lcd_write+0x18>
  8e:	85 b3       	in	r24, 0x15	; 21
  90:	8f 7e       	andi	r24, 0xEF	; 239
  92:	85 bb       	out	0x15, r24	; 21
  94:	85 b3       	in	r24, 0x15	; 21
  96:	8f 7d       	andi	r24, 0xDF	; 223
  98:	85 bb       	out	0x15, r24	; 21
  9a:	84 b3       	in	r24, 0x14	; 20
  9c:	8f 60       	ori	r24, 0x0F	; 15
  9e:	84 bb       	out	0x14, r24	; 20
  a0:	c5 b3       	in	r28, 0x15	; 21
  a2:	c0 7f       	andi	r28, 0xF0	; 240
  a4:	8d 2f       	mov	r24, r29
  a6:	82 95       	swap	r24
  a8:	8f 70       	andi	r24, 0x0F	; 15
  aa:	8c 2b       	or	r24, r28
  ac:	85 bb       	out	0x15, r24	; 21
  ae:	0e 94 36 00 	call	0x6c	; 0x6c <toggle_e>
  b2:	df 70       	andi	r29, 0x0F	; 15
  b4:	dc 2b       	or	r29, r28
  b6:	d5 bb       	out	0x15, r29	; 21
  b8:	0e 94 36 00 	call	0x6c	; 0x6c <toggle_e>
  bc:	cf 60       	ori	r28, 0x0F	; 15
  be:	c5 bb       	out	0x15, r28	; 21
  c0:	df 91       	pop	r29
  c2:	cf 91       	pop	r28
  c4:	08 95       	ret

000000c6 <lcd_read>:
  c6:	88 23       	and	r24, r24
  c8:	21 f0       	breq	.+8      	; 0xd2 <lcd_read+0xc>
  ca:	85 b3       	in	r24, 0x15	; 21
  cc:	80 61       	ori	r24, 0x10	; 16
  ce:	85 bb       	out	0x15, r24	; 21
  d0:	03 c0       	rjmp	.+6      	; 0xd8 <lcd_read+0x12>
  d2:	85 b3       	in	r24, 0x15	; 21
  d4:	8f 7e       	andi	r24, 0xEF	; 239
  d6:	85 bb       	out	0x15, r24	; 21
  d8:	85 b3       	in	r24, 0x15	; 21
  da:	80 62       	ori	r24, 0x20	; 32
  dc:	85 bb       	out	0x15, r24	; 21
  de:	84 b3       	in	r24, 0x14	; 20
  e0:	80 7f       	andi	r24, 0xF0	; 240
  e2:	84 bb       	out	0x14, r24	; 20
  e4:	85 b3       	in	r24, 0x15	; 21
  e6:	80 64       	ori	r24, 0x40	; 64
  e8:	85 bb       	out	0x15, r24	; 21
  ea:	00 c0       	rjmp	.+0      	; 0xec <lcd_read+0x26>
  ec:	93 b3       	in	r25, 0x13	; 19
  ee:	92 95       	swap	r25
  f0:	90 7f       	andi	r25, 0xF0	; 240
  f2:	85 b3       	in	r24, 0x15	; 21
  f4:	8f 7b       	andi	r24, 0xBF	; 191
  f6:	85 bb       	out	0x15, r24	; 21
  f8:	00 c0       	rjmp	.+0      	; 0xfa <lcd_read+0x34>
  fa:	85 b3       	in	r24, 0x15	; 21
  fc:	80 64       	ori	r24, 0x40	; 64
  fe:	85 bb       	out	0x15, r24	; 21
 100:	00 c0       	rjmp	.+0      	; 0x102 <lcd_read+0x3c>
 102:	83 b3       	in	r24, 0x13	; 19
 104:	8f 70       	andi	r24, 0x0F	; 15
 106:	25 b3       	in	r18, 0x15	; 21
 108:	2f 7b       	andi	r18, 0xBF	; 191
 10a:	25 bb       	out	0x15, r18	; 21
 10c:	89 2b       	or	r24, r25
 10e:	08 95       	ret

00000110 <lcd_waitbusy>:
 110:	80 e0       	ldi	r24, 0x00	; 0
 112:	0e 94 63 00 	call	0xc6	; 0xc6 <lcd_read>
 116:	88 23       	and	r24, r24
 118:	dc f3       	brlt	.-10     	; 0x110 <lcd_waitbusy>
 11a:	82 e0       	ldi	r24, 0x02	; 2
 11c:	90 e0       	ldi	r25, 0x00	; 0
 11e:	01 97       	sbiw	r24, 0x01	; 1
 120:	f1 f7       	brne	.-4      	; 0x11e <lcd_waitbusy+0xe>
 122:	80 e0       	ldi	r24, 0x00	; 0
 124:	0e 94 63 00 	call	0xc6	; 0xc6 <lcd_read>
 128:	08 95       	ret

0000012a <lcd_command>:
 12a:	cf 93       	push	r28
 12c:	c8 2f       	mov	r28, r24
 12e:	0e 94 88 00 	call	0x110	; 0x110 <lcd_waitbusy>
 132:	60 e0       	ldi	r22, 0x00	; 0
 134:	8c 2f       	mov	r24, r28
 136:	0e 94 3e 00 	call	0x7c	; 0x7c <lcd_write>
 13a:	cf 91       	pop	r28
 13c:	08 95       	ret

0000013e <lcd_gotoxy>:
 13e:	61 11       	cpse	r22, r1
 140:	04 c0       	rjmp	.+8      	; 0x14a <lcd_gotoxy+0xc>
 142:	80 58       	subi	r24, 0x80	; 128
 144:	0e 94 95 00 	call	0x12a	; 0x12a <lcd_command>
 148:	08 95       	ret
 14a:	80 54       	subi	r24, 0x40	; 64
 14c:	0e 94 95 00 	call	0x12a	; 0x12a <lcd_command>
 150:	08 95       	ret

00000152 <lcd_clrscr>:
 152:	81 e0       	ldi	r24, 0x01	; 1
 154:	0e 94 95 00 	call	0x12a	; 0x12a <lcd_command>
 158:	08 95       	ret

0000015a <lcd_putc>:
 15a:	cf 93       	push	r28
 15c:	c8 2f       	mov	r28, r24
 15e:	0e 94 88 00 	call	0x110	; 0x110 <lcd_waitbusy>
 162:	ca 30       	cpi	r28, 0x0A	; 10
 164:	49 f4       	brne	.+18     	; 0x178 <lcd_putc+0x1e>
 166:	80 34       	cpi	r24, 0x40	; 64
 168:	10 f4       	brcc	.+4      	; 0x16e <lcd_putc+0x14>
 16a:	80 e4       	ldi	r24, 0x40	; 64
 16c:	01 c0       	rjmp	.+2      	; 0x170 <lcd_putc+0x16>
 16e:	80 e0       	ldi	r24, 0x00	; 0
 170:	80 58       	subi	r24, 0x80	; 128
 172:	0e 94 95 00 	call	0x12a	; 0x12a <lcd_command>
 176:	04 c0       	rjmp	.+8      	; 0x180 <lcd_putc+0x26>
 178:	61 e0       	ldi	r22, 0x01	; 1
 17a:	8c 2f       	mov	r24, r28
 17c:	0e 94 3e 00 	call	0x7c	; 0x7c <lcd_write>
 180:	cf 91       	pop	r28
 182:	08 95       	ret

00000184 <lcd_init>:
                   LCD_DISP_ON_CURSOR      display on, cursor on
                   LCD_DISP_CURSOR_BLINK   display on, cursor on flashing
Returns:  none
*************************************************************************/
void lcd_init(uint8_t dispAttr)
{
 184:	1f 93       	push	r17
 186:	cf 93       	push	r28
 188:	df 93       	push	r29
 18a:	18 2f       	mov	r17, r24
      && ( &LCD_RS_PORT == &LCD_DATA0_PORT) && ( &LCD_RW_PORT == &LCD_DATA0_PORT) && (&LCD_E_PORT == &LCD_DATA0_PORT)
      && (LCD_DATA0_PIN == 0 ) && (LCD_DATA1_PIN == 1) && (LCD_DATA2_PIN == 2) && (LCD_DATA3_PIN == 3) 
      && (LCD_RS_PIN == 4 ) && (LCD_RW_PIN == 5) && (LCD_E_PIN == 6 ) )
    {
        /* configure all port bits as output (all LCD lines on same port) */
        DDR(LCD_DATA0_PORT) |= 0x7F;
 18c:	84 b3       	in	r24, 0x14	; 20
 18e:	8f 67       	ori	r24, 0x7F	; 127
 190:	84 bb       	out	0x14, r24	; 20
static inline void _delayFourCycles(unsigned int __count)
{
    if ( __count == 0 )    
        __asm__ __volatile__( "rjmp 1f\n 1:" );    // 2 cycles
    else
        __asm__ __volatile__ (
 192:	80 e8       	ldi	r24, 0x80	; 128
 194:	9e e3       	ldi	r25, 0x3E	; 62
 196:	01 97       	sbiw	r24, 0x01	; 1
 198:	f1 f7       	brne	.-4      	; 0x196 <lcd_init+0x12>
        DDR(LCD_DATA3_PORT) |= _BV(LCD_DATA3_PIN);
    }
    delay(16000);        /* wait 16ms or more after power-on       */
    
    /* initial write to lcd is 8bit */
    LCD_DATA1_PORT |= _BV(LCD_DATA1_PIN);  // _BV(LCD_FUNCTION)>>4;
 19a:	85 b3       	in	r24, 0x15	; 21
 19c:	82 60       	ori	r24, 0x02	; 2
 19e:	85 bb       	out	0x15, r24	; 21
    LCD_DATA0_PORT |= _BV(LCD_DATA0_PIN);  // _BV(LCD_FUNCTION_8BIT)>>4;
 1a0:	85 b3       	in	r24, 0x15	; 21
 1a2:	81 60       	ori	r24, 0x01	; 1
 1a4:	85 bb       	out	0x15, r24	; 21
    lcd_e_toggle();
 1a6:	0e 94 36 00 	call	0x6c	; 0x6c <toggle_e>
static inline void _delayFourCycles(unsigned int __count)
{
    if ( __count == 0 )    
        __asm__ __volatile__( "rjmp 1f\n 1:" );    // 2 cycles
    else
        __asm__ __volatile__ (
 1aa:	80 e8       	ldi	r24, 0x80	; 128
 1ac:	93 e1       	ldi	r25, 0x13	; 19
 1ae:	01 97       	sbiw	r24, 0x01	; 1
 1b0:	f1 f7       	brne	.-4      	; 0x1ae <lcd_init+0x2a>
    LCD_DATA0_PORT |= _BV(LCD_DATA0_PIN);  // _BV(LCD_FUNCTION_8BIT)>>4;
    lcd_e_toggle();
    delay(4992);         /* delay, busy flag can't be checked here */
   
    /* repeat last command */ 
    lcd_e_toggle();      
 1b2:	0e 94 36 00 	call	0x6c	; 0x6c <toggle_e>
static inline void _delayFourCycles(unsigned int __count)
{
    if ( __count == 0 )    
        __asm__ __volatile__( "rjmp 1f\n 1:" );    // 2 cycles
    else
        __asm__ __volatile__ (
 1b6:	c0 e4       	ldi	r28, 0x40	; 64
 1b8:	d0 e0       	ldi	r29, 0x00	; 0
 1ba:	ce 01       	movw	r24, r28
 1bc:	01 97       	sbiw	r24, 0x01	; 1
 1be:	f1 f7       	brne	.-4      	; 0x1bc <lcd_init+0x38>
    /* repeat last command */ 
    lcd_e_toggle();      
    delay(64);           /* delay, busy flag can't be checked here */
    
    /* repeat last command a third time */
    lcd_e_toggle();      
 1c0:	0e 94 36 00 	call	0x6c	; 0x6c <toggle_e>
static inline void _delayFourCycles(unsigned int __count)
{
    if ( __count == 0 )    
        __asm__ __volatile__( "rjmp 1f\n 1:" );    // 2 cycles
    else
        __asm__ __volatile__ (
 1c4:	ce 01       	movw	r24, r28
 1c6:	01 97       	sbiw	r24, 0x01	; 1
 1c8:	f1 f7       	brne	.-4      	; 0x1c6 <lcd_init+0x42>
    /* repeat last command a third time */
    lcd_e_toggle();      
    delay(64);           /* delay, busy flag can't be checked here */

    /* now configure for 4bit mode */
    LCD_DATA0_PORT &= ~_BV(LCD_DATA0_PIN);   // LCD_FUNCTION_4BIT_1LINE>>4
 1ca:	85 b3       	in	r24, 0x15	; 21
 1cc:	8e 7f       	andi	r24, 0xFE	; 254
 1ce:	85 bb       	out	0x15, r24	; 21
    lcd_e_toggle();
 1d0:	0e 94 36 00 	call	0x6c	; 0x6c <toggle_e>
static inline void _delayFourCycles(unsigned int __count)
{
    if ( __count == 0 )    
        __asm__ __volatile__( "rjmp 1f\n 1:" );    // 2 cycles
    else
        __asm__ __volatile__ (
 1d4:	21 97       	sbiw	r28, 0x01	; 1
 1d6:	f1 f7       	brne	.-4      	; 0x1d4 <lcd_init+0x50>
    /* Display with KS0073 controller requires special commands for enabling 4 line mode */
	lcd_command(KS0073_EXTENDED_FUNCTION_REGISTER_ON);
	lcd_command(KS0073_4LINES_MODE);
	lcd_command(KS0073_EXTENDED_FUNCTION_REGISTER_OFF);
#else
    lcd_command(LCD_FUNCTION_DEFAULT);      /* function set: display lines  */
 1d8:	88 e2       	ldi	r24, 0x28	; 40
 1da:	0e 94 95 00 	call	0x12a	; 0x12a <lcd_command>
#endif
    lcd_command(LCD_DISP_OFF);              /* display off                  */
 1de:	88 e0       	ldi	r24, 0x08	; 8
 1e0:	0e 94 95 00 	call	0x12a	; 0x12a <lcd_command>
    lcd_clrscr();                           /* display clear                */ 
 1e4:	0e 94 a9 00 	call	0x152	; 0x152 <lcd_clrscr>
    lcd_command(LCD_MODE_DEFAULT);          /* set entry mode               */
 1e8:	86 e0       	ldi	r24, 0x06	; 6
 1ea:	0e 94 95 00 	call	0x12a	; 0x12a <lcd_command>
    lcd_command(dispAttr);                  /* display/cursor control       */
 1ee:	81 2f       	mov	r24, r17
 1f0:	0e 94 95 00 	call	0x12a	; 0x12a <lcd_command>

}/* lcd_init */
 1f4:	df 91       	pop	r29
 1f6:	cf 91       	pop	r28
 1f8:	1f 91       	pop	r17
 1fa:	08 95       	ret

000001fc <ADC_Read>:
#include <util/delay.h>
#include "lcd.h" // Debes tener una librería para controlar el LCD
int ADC_Read(char channel)
{

    ADMUX =(ADMUX & 0xF8) | (channel & 7);
 1fc:	97 b1       	in	r25, 0x07	; 7
 1fe:	98 7f       	andi	r25, 0xF8	; 248
 200:	87 70       	andi	r24, 0x07	; 7
 202:	89 2b       	or	r24, r25
 204:	87 b9       	out	0x07, r24	; 7
    
    // se inicia la conversión.
    ADCSRA |= (1 << ADSC);
 206:	86 b1       	in	r24, 0x06	; 6
 208:	80 64       	ori	r24, 0x40	; 64
 20a:	86 b9       	out	0x06, r24	; 6
    
    // espera a que termina la conversión.
    while(ADCSRA & (1 << ADSC));
 20c:	36 99       	sbic	0x06, 6	; 6
 20e:	fe cf       	rjmp	.-4      	; 0x20c <__EEPROM_REGION_LENGTH__+0xc>
    return ADC;
 210:	84 b1       	in	r24, 0x04	; 4
 212:	95 b1       	in	r25, 0x05	; 5
}
 214:	08 95       	ret

00000216 <print>:
void print(int a,int b,int c) {
 216:	1f 93       	push	r17
 218:	cf 93       	push	r28
 21a:	df 93       	push	r29
 21c:	18 2f       	mov	r17, r24
 21e:	d6 2f       	mov	r29, r22
 220:	c4 2f       	mov	r28, r20
	lcd_gotoxy(0,0);
 222:	60 e0       	ldi	r22, 0x00	; 0
 224:	80 e0       	ldi	r24, 0x00	; 0
 226:	0e 94 9f 00 	call	0x13e	; 0x13e <lcd_gotoxy>
	if (a&1) lcd_putc(255);		
 22a:	10 ff       	sbrs	r17, 0
 22c:	04 c0       	rjmp	.+8      	; 0x236 <print+0x20>
 22e:	8f ef       	ldi	r24, 0xFF	; 255
 230:	0e 94 ad 00 	call	0x15a	; 0x15a <lcd_putc>
 234:	03 c0       	rjmp	.+6      	; 0x23c <print+0x26>
	else lcd_putc(129);
 236:	81 e8       	ldi	r24, 0x81	; 129
 238:	0e 94 ad 00 	call	0x15a	; 0x15a <lcd_putc>
	lcd_gotoxy(1,0);
 23c:	60 e0       	ldi	r22, 0x00	; 0
 23e:	81 e0       	ldi	r24, 0x01	; 1
 240:	0e 94 9f 00 	call	0x13e	; 0x13e <lcd_gotoxy>
	if (a&2) lcd_putc(255);
 244:	11 ff       	sbrs	r17, 1
 246:	04 c0       	rjmp	.+8      	; 0x250 <print+0x3a>
 248:	8f ef       	ldi	r24, 0xFF	; 255
 24a:	0e 94 ad 00 	call	0x15a	; 0x15a <lcd_putc>
 24e:	03 c0       	rjmp	.+6      	; 0x256 <print+0x40>
	else lcd_putc(129);
 250:	81 e8       	ldi	r24, 0x81	; 129
 252:	0e 94 ad 00 	call	0x15a	; 0x15a <lcd_putc>
	lcd_gotoxy(2,0);
 256:	60 e0       	ldi	r22, 0x00	; 0
 258:	82 e0       	ldi	r24, 0x02	; 2
 25a:	0e 94 9f 00 	call	0x13e	; 0x13e <lcd_gotoxy>
	if (a&4) lcd_putc(255);
 25e:	12 ff       	sbrs	r17, 2
 260:	04 c0       	rjmp	.+8      	; 0x26a <print+0x54>
 262:	8f ef       	ldi	r24, 0xFF	; 255
 264:	0e 94 ad 00 	call	0x15a	; 0x15a <lcd_putc>
 268:	03 c0       	rjmp	.+6      	; 0x270 <print+0x5a>
	else lcd_putc(129);
 26a:	81 e8       	ldi	r24, 0x81	; 129
 26c:	0e 94 ad 00 	call	0x15a	; 0x15a <lcd_putc>
	lcd_gotoxy(3,0);
 270:	60 e0       	ldi	r22, 0x00	; 0
 272:	83 e0       	ldi	r24, 0x03	; 3
 274:	0e 94 9f 00 	call	0x13e	; 0x13e <lcd_gotoxy>
	if (a&8) lcd_putc(255);
 278:	13 ff       	sbrs	r17, 3
 27a:	04 c0       	rjmp	.+8      	; 0x284 <print+0x6e>
 27c:	8f ef       	ldi	r24, 0xFF	; 255
 27e:	0e 94 ad 00 	call	0x15a	; 0x15a <lcd_putc>
 282:	03 c0       	rjmp	.+6      	; 0x28a <print+0x74>
	else lcd_putc(129);
 284:	81 e8       	ldi	r24, 0x81	; 129
 286:	0e 94 ad 00 	call	0x15a	; 0x15a <lcd_putc>
	
	lcd_gotoxy(12,0);
 28a:	60 e0       	ldi	r22, 0x00	; 0
 28c:	8c e0       	ldi	r24, 0x0C	; 12
 28e:	0e 94 9f 00 	call	0x13e	; 0x13e <lcd_gotoxy>
	if (b&1) lcd_putc(255);
 292:	d0 ff       	sbrs	r29, 0
 294:	04 c0       	rjmp	.+8      	; 0x29e <print+0x88>
 296:	8f ef       	ldi	r24, 0xFF	; 255
 298:	0e 94 ad 00 	call	0x15a	; 0x15a <lcd_putc>
 29c:	03 c0       	rjmp	.+6      	; 0x2a4 <print+0x8e>
	else lcd_putc(129);
 29e:	81 e8       	ldi	r24, 0x81	; 129
 2a0:	0e 94 ad 00 	call	0x15a	; 0x15a <lcd_putc>
	lcd_gotoxy(13,0);
 2a4:	60 e0       	ldi	r22, 0x00	; 0
 2a6:	8d e0       	ldi	r24, 0x0D	; 13
 2a8:	0e 94 9f 00 	call	0x13e	; 0x13e <lcd_gotoxy>
	if (b&2) lcd_putc(255);
 2ac:	d1 ff       	sbrs	r29, 1
 2ae:	04 c0       	rjmp	.+8      	; 0x2b8 <print+0xa2>
 2b0:	8f ef       	ldi	r24, 0xFF	; 255
 2b2:	0e 94 ad 00 	call	0x15a	; 0x15a <lcd_putc>
 2b6:	03 c0       	rjmp	.+6      	; 0x2be <print+0xa8>
	else lcd_putc(129);
 2b8:	81 e8       	ldi	r24, 0x81	; 129
 2ba:	0e 94 ad 00 	call	0x15a	; 0x15a <lcd_putc>
	lcd_gotoxy(14,0);
 2be:	60 e0       	ldi	r22, 0x00	; 0
 2c0:	8e e0       	ldi	r24, 0x0E	; 14
 2c2:	0e 94 9f 00 	call	0x13e	; 0x13e <lcd_gotoxy>
	if (b&4) lcd_putc(255);
 2c6:	d2 ff       	sbrs	r29, 2
 2c8:	04 c0       	rjmp	.+8      	; 0x2d2 <print+0xbc>
 2ca:	8f ef       	ldi	r24, 0xFF	; 255
 2cc:	0e 94 ad 00 	call	0x15a	; 0x15a <lcd_putc>
 2d0:	03 c0       	rjmp	.+6      	; 0x2d8 <print+0xc2>
	else lcd_putc(129);
 2d2:	81 e8       	ldi	r24, 0x81	; 129
 2d4:	0e 94 ad 00 	call	0x15a	; 0x15a <lcd_putc>
	lcd_gotoxy(15,0);
 2d8:	60 e0       	ldi	r22, 0x00	; 0
 2da:	8f e0       	ldi	r24, 0x0F	; 15
 2dc:	0e 94 9f 00 	call	0x13e	; 0x13e <lcd_gotoxy>
	if (b&8) lcd_putc(255);
 2e0:	d3 ff       	sbrs	r29, 3
 2e2:	04 c0       	rjmp	.+8      	; 0x2ec <print+0xd6>
 2e4:	8f ef       	ldi	r24, 0xFF	; 255
 2e6:	0e 94 ad 00 	call	0x15a	; 0x15a <lcd_putc>
 2ea:	03 c0       	rjmp	.+6      	; 0x2f2 <print+0xdc>
	else lcd_putc(129);
 2ec:	81 e8       	ldi	r24, 0x81	; 129
 2ee:	0e 94 ad 00 	call	0x15a	; 0x15a <lcd_putc>

	lcd_gotoxy(0,1);
 2f2:	61 e0       	ldi	r22, 0x01	; 1
 2f4:	80 e0       	ldi	r24, 0x00	; 0
 2f6:	0e 94 9f 00 	call	0x13e	; 0x13e <lcd_gotoxy>
	if (c&1) lcd_putc(255);
 2fa:	c0 ff       	sbrs	r28, 0
 2fc:	04 c0       	rjmp	.+8      	; 0x306 <print+0xf0>
 2fe:	8f ef       	ldi	r24, 0xFF	; 255
 300:	0e 94 ad 00 	call	0x15a	; 0x15a <lcd_putc>
 304:	03 c0       	rjmp	.+6      	; 0x30c <print+0xf6>
	else lcd_putc(129);
 306:	81 e8       	ldi	r24, 0x81	; 129
 308:	0e 94 ad 00 	call	0x15a	; 0x15a <lcd_putc>
	lcd_gotoxy(1,1);
 30c:	61 e0       	ldi	r22, 0x01	; 1
 30e:	81 e0       	ldi	r24, 0x01	; 1
 310:	0e 94 9f 00 	call	0x13e	; 0x13e <lcd_gotoxy>
	if (c&2) lcd_putc(255);
 314:	c1 ff       	sbrs	r28, 1
 316:	04 c0       	rjmp	.+8      	; 0x320 <print+0x10a>
 318:	8f ef       	ldi	r24, 0xFF	; 255
 31a:	0e 94 ad 00 	call	0x15a	; 0x15a <lcd_putc>
 31e:	03 c0       	rjmp	.+6      	; 0x326 <print+0x110>
	else lcd_putc(129);
 320:	81 e8       	ldi	r24, 0x81	; 129
 322:	0e 94 ad 00 	call	0x15a	; 0x15a <lcd_putc>
	lcd_gotoxy(2,1);
 326:	61 e0       	ldi	r22, 0x01	; 1
 328:	82 e0       	ldi	r24, 0x02	; 2
 32a:	0e 94 9f 00 	call	0x13e	; 0x13e <lcd_gotoxy>
	if (c&4) lcd_putc(255);
 32e:	c2 ff       	sbrs	r28, 2
 330:	04 c0       	rjmp	.+8      	; 0x33a <print+0x124>
 332:	8f ef       	ldi	r24, 0xFF	; 255
 334:	0e 94 ad 00 	call	0x15a	; 0x15a <lcd_putc>
 338:	03 c0       	rjmp	.+6      	; 0x340 <print+0x12a>
	else lcd_putc(129);
 33a:	81 e8       	ldi	r24, 0x81	; 129
 33c:	0e 94 ad 00 	call	0x15a	; 0x15a <lcd_putc>
	lcd_gotoxy(3,1);
 340:	61 e0       	ldi	r22, 0x01	; 1
 342:	83 e0       	ldi	r24, 0x03	; 3
 344:	0e 94 9f 00 	call	0x13e	; 0x13e <lcd_gotoxy>
	if (c&8) lcd_putc(255);
 348:	c3 ff       	sbrs	r28, 3
 34a:	04 c0       	rjmp	.+8      	; 0x354 <print+0x13e>
 34c:	8f ef       	ldi	r24, 0xFF	; 255
 34e:	0e 94 ad 00 	call	0x15a	; 0x15a <lcd_putc>
 352:	03 c0       	rjmp	.+6      	; 0x35a <print+0x144>
	else lcd_putc(129);
 354:	81 e8       	ldi	r24, 0x81	; 129
 356:	0e 94 ad 00 	call	0x15a	; 0x15a <lcd_putc>
}
 35a:	df 91       	pop	r29
 35c:	cf 91       	pop	r28
 35e:	1f 91       	pop	r17
 360:	08 95       	ret

00000362 <main>:
int main(void)
{
	char String[5];
		DDRA=0x0;			/* Make ADC port as input */
 362:	1a ba       	out	0x1a, r1	; 26
		ADCSRA = (1 << ADEN) | (1 << ADPS0) | (1 << ADPS2);
 364:	85 e8       	ldi	r24, 0x85	; 133
 366:	86 b9       	out	0x06, r24	; 6
		ADMUX = 0x47;			/* Vref: Avcc, ADC channel: 0 */
 368:	87 e4       	ldi	r24, 0x47	; 71
 36a:	87 b9       	out	0x07, r24	; 7

	uint8_t puertoB = 0;
	uint8_t puertoC = 0;
	uint8_t puertoA = 0;
	int value;
	lcd_init(LCD_DISP_ON);
 36c:	8c e0       	ldi	r24, 0x0C	; 12
 36e:	0e 94 c2 00 	call	0x184	; 0x184 <lcd_init>
	lcd_clrscr();
 372:	0e 94 a9 00 	call	0x152	; 0x152 <lcd_clrscr>
	print(puertoB,puertoA,puertoC);
 376:	40 e0       	ldi	r20, 0x00	; 0
 378:	50 e0       	ldi	r21, 0x00	; 0
 37a:	60 e0       	ldi	r22, 0x00	; 0
 37c:	70 e0       	ldi	r23, 0x00	; 0
 37e:	80 e0       	ldi	r24, 0x00	; 0
 380:	90 e0       	ldi	r25, 0x00	; 0
 382:	0e 94 0b 01 	call	0x216	; 0x216 <print>
		ADMUX = 0x47;			/* Vref: Avcc, ADC channel: 0 */


	uint8_t puertoB = 0;
	uint8_t puertoC = 0;
	uint8_t puertoA = 0;
 386:	f1 2c       	mov	r15, r1
		ADCSRA = (1 << ADEN) | (1 << ADPS0) | (1 << ADPS2);
		ADMUX = 0x47;			/* Vref: Avcc, ADC channel: 0 */


	uint8_t puertoB = 0;
	uint8_t puertoC = 0;
 388:	c0 e0       	ldi	r28, 0x00	; 0
	while (1)
	{
		
		
		// Convertir a voltaje (0.0 a 5.0 V)
		value = ADC_Read(0);
 38a:	80 e0       	ldi	r24, 0x00	; 0
 38c:	0e 94 fe 00 	call	0x1fc	; 0x1fc <ADC_Read>
		puertoB = 0;
		if (value >= 0) {
			puertoB += 0;
		}
		if (value >= 205) {
 390:	8d 3c       	cpi	r24, 0xCD	; 205
 392:	91 05       	cpc	r25, r1
 394:	14 f4       	brge	.+4      	; 0x39a <main+0x38>
 396:	00 e0       	ldi	r16, 0x00	; 0
 398:	01 c0       	rjmp	.+2      	; 0x39c <main+0x3a>
			puertoB += 1;
 39a:	01 e0       	ldi	r16, 0x01	; 1
		}
		if (value >= 410) {
 39c:	8a 39       	cpi	r24, 0x9A	; 154
 39e:	21 e0       	ldi	r18, 0x01	; 1
 3a0:	92 07       	cpc	r25, r18
 3a2:	0c f0       	brlt	.+2      	; 0x3a6 <main+0x44>
			puertoB +=2;
 3a4:	0e 5f       	subi	r16, 0xFE	; 254
		}
		if (value >= 615) {
 3a6:	87 36       	cpi	r24, 0x67	; 103
 3a8:	22 e0       	ldi	r18, 0x02	; 2
 3aa:	92 07       	cpc	r25, r18
 3ac:	0c f0       	brlt	.+2      	; 0x3b0 <main+0x4e>
			puertoB += 4;
 3ae:	0c 5f       	subi	r16, 0xFC	; 252
		}
		if (value >= 820) {
 3b0:	84 33       	cpi	r24, 0x34	; 52
 3b2:	93 40       	sbci	r25, 0x03	; 3
 3b4:	0c f0       	brlt	.+2      	; 0x3b8 <main+0x56>
			puertoB += 8;
 3b6:	08 5f       	subi	r16, 0xF8	; 248
		}
		print(puertoB,puertoA,puertoC);
 3b8:	d0 e0       	ldi	r29, 0x00	; 0
 3ba:	10 e0       	ldi	r17, 0x00	; 0
 3bc:	6f 2d       	mov	r22, r15
 3be:	70 e0       	ldi	r23, 0x00	; 0
 3c0:	ae 01       	movw	r20, r28
 3c2:	c8 01       	movw	r24, r16
 3c4:	0e 94 0b 01 	call	0x216	; 0x216 <print>
	#else
		//round up by default
		__ticks_dc = (uint32_t)(ceil(fabs(__tmp)));
	#endif

	__builtin_avr_delay_cycles(__ticks_dc);
 3c8:	8f e7       	ldi	r24, 0x7F	; 127
 3ca:	98 e3       	ldi	r25, 0x38	; 56
 3cc:	21 e0       	ldi	r18, 0x01	; 1
 3ce:	81 50       	subi	r24, 0x01	; 1
 3d0:	90 40       	sbci	r25, 0x00	; 0
 3d2:	20 40       	sbci	r18, 0x00	; 0
 3d4:	e1 f7       	brne	.-8      	; 0x3ce <main+0x6c>
 3d6:	00 c0       	rjmp	.+0      	; 0x3d8 <main+0x76>
 3d8:	00 00       	nop
		_delay_ms(100);
		value = ADC_Read(1);
 3da:	81 e0       	ldi	r24, 0x01	; 1
 3dc:	0e 94 fe 00 	call	0x1fc	; 0x1fc <ADC_Read>
		puertoA = 0;
		if (value >= 205) {
 3e0:	8d 3c       	cpi	r24, 0xCD	; 205
 3e2:	91 05       	cpc	r25, r1
 3e4:	14 f4       	brge	.+4      	; 0x3ea <main+0x88>
			puertoB += 8;
		}
		print(puertoB,puertoA,puertoC);
		_delay_ms(100);
		value = ADC_Read(1);
		puertoA = 0;
 3e6:	f1 2c       	mov	r15, r1
 3e8:	02 c0       	rjmp	.+4      	; 0x3ee <main+0x8c>
		if (value >= 205) {
			puertoA += 1;
 3ea:	ff 24       	eor	r15, r15
 3ec:	f3 94       	inc	r15
		}
		if (value >= 410) {
 3ee:	8a 39       	cpi	r24, 0x9A	; 154
 3f0:	21 e0       	ldi	r18, 0x01	; 1
 3f2:	92 07       	cpc	r25, r18
 3f4:	14 f0       	brlt	.+4      	; 0x3fa <main+0x98>
			puertoA +=2;
 3f6:	f3 94       	inc	r15
 3f8:	f3 94       	inc	r15
		}
		if (value >= 615) {
 3fa:	87 36       	cpi	r24, 0x67	; 103
 3fc:	22 e0       	ldi	r18, 0x02	; 2
 3fe:	92 07       	cpc	r25, r18
 400:	14 f0       	brlt	.+4      	; 0x406 <__DATA_REGION_LENGTH__+0x6>
			puertoA += 4;
 402:	24 e0       	ldi	r18, 0x04	; 4
 404:	f2 0e       	add	r15, r18
		}
		if (value >= 820) {
 406:	84 33       	cpi	r24, 0x34	; 52
 408:	93 40       	sbci	r25, 0x03	; 3
 40a:	14 f0       	brlt	.+4      	; 0x410 <__DATA_REGION_LENGTH__+0x10>
			puertoA += 8;
 40c:	88 e0       	ldi	r24, 0x08	; 8
 40e:	f8 0e       	add	r15, r24
 410:	9f e7       	ldi	r25, 0x7F	; 127
 412:	28 e3       	ldi	r18, 0x38	; 56
 414:	81 e0       	ldi	r24, 0x01	; 1
 416:	91 50       	subi	r25, 0x01	; 1
 418:	20 40       	sbci	r18, 0x00	; 0
 41a:	80 40       	sbci	r24, 0x00	; 0
 41c:	e1 f7       	brne	.-8      	; 0x416 <__DATA_REGION_LENGTH__+0x16>
 41e:	00 c0       	rjmp	.+0      	; 0x420 <__DATA_REGION_LENGTH__+0x20>
 420:	00 00       	nop
		}
		_delay_ms(100);
		print(puertoB,puertoA,puertoC);
 422:	cf 2c       	mov	r12, r15
 424:	d1 2c       	mov	r13, r1
 426:	ae 01       	movw	r20, r28
 428:	b6 01       	movw	r22, r12
 42a:	c8 01       	movw	r24, r16
 42c:	0e 94 0b 01 	call	0x216	; 0x216 <print>
		value = ADC_Read(2);
 430:	82 e0       	ldi	r24, 0x02	; 2
 432:	0e 94 fe 00 	call	0x1fc	; 0x1fc <ADC_Read>
		puertoC = 0;
		if (value >= 0) {
			puertoC += 0;
		}
		if (value >= 205) {
 436:	8d 3c       	cpi	r24, 0xCD	; 205
 438:	91 05       	cpc	r25, r1
 43a:	14 f4       	brge	.+4      	; 0x440 <__DATA_REGION_LENGTH__+0x40>
 43c:	c0 e0       	ldi	r28, 0x00	; 0
 43e:	01 c0       	rjmp	.+2      	; 0x442 <__DATA_REGION_LENGTH__+0x42>
			puertoC += 1;
 440:	c1 e0       	ldi	r28, 0x01	; 1
		}
		if (value >= 410) {
 442:	8a 39       	cpi	r24, 0x9A	; 154
 444:	21 e0       	ldi	r18, 0x01	; 1
 446:	92 07       	cpc	r25, r18
 448:	0c f0       	brlt	.+2      	; 0x44c <__DATA_REGION_LENGTH__+0x4c>
			puertoC +=2;
 44a:	ce 5f       	subi	r28, 0xFE	; 254
		}
		if (value >= 615) {
 44c:	87 36       	cpi	r24, 0x67	; 103
 44e:	22 e0       	ldi	r18, 0x02	; 2
 450:	92 07       	cpc	r25, r18
 452:	0c f0       	brlt	.+2      	; 0x456 <__DATA_REGION_LENGTH__+0x56>
			puertoC += 4;
 454:	cc 5f       	subi	r28, 0xFC	; 252
		}
		if (value >= 820) {
 456:	84 33       	cpi	r24, 0x34	; 52
 458:	93 40       	sbci	r25, 0x03	; 3
 45a:	0c f0       	brlt	.+2      	; 0x45e <__DATA_REGION_LENGTH__+0x5e>
			puertoC += 8;
 45c:	c8 5f       	subi	r28, 0xF8	; 248
		}
		print(puertoB,puertoA,puertoC);
 45e:	4c 2f       	mov	r20, r28
 460:	50 e0       	ldi	r21, 0x00	; 0
 462:	b6 01       	movw	r22, r12
 464:	c8 01       	movw	r24, r16
 466:	0e 94 0b 01 	call	0x216	; 0x216 <print>
 46a:	8f e7       	ldi	r24, 0x7F	; 127
 46c:	98 e3       	ldi	r25, 0x38	; 56
 46e:	21 e0       	ldi	r18, 0x01	; 1
 470:	81 50       	subi	r24, 0x01	; 1
 472:	90 40       	sbci	r25, 0x00	; 0
 474:	20 40       	sbci	r18, 0x00	; 0
 476:	e1 f7       	brne	.-8      	; 0x470 <__stack+0x11>
 478:	00 c0       	rjmp	.+0      	; 0x47a <__stack+0x1b>
 47a:	00 00       	nop
 47c:	86 cf       	rjmp	.-244    	; 0x38a <main+0x28>

0000047e <_exit>:
 47e:	f8 94       	cli

00000480 <__stop_program>:
 480:	ff cf       	rjmp	.-2      	; 0x480 <__stop_program>
